; ModuleID = '50/1326.cpp'
source_filename = "50/1326.cpp"
target datalayout = "e-m:e-p270:32:32-p271:32:32-p272:64:64-i64:64-f80:128-n8:16:32:64-S128"
target triple = "x86_64-pc-linux-gnu"

%"class.std::ios_base::Init" = type { i8 }
%"class.std::basic_istream" = type { i32 (...)**, i64, %"class.std::basic_ios" }
%"class.std::basic_ios" = type { %"class.std::ios_base", %"class.std::basic_ostream"*, i8, i8, %"class.std::basic_streambuf"*, %"class.std::ctype"*, %"class.std::num_put"*, %"class.std::num_get"* }
%"class.std::ios_base" = type { i32 (...)**, i64, i64, i32, i32, i32, %"struct.std::ios_base::_Callback_list"*, %"struct.std::ios_base::_Words", [8 x %"struct.std::ios_base::_Words"], i32, %"struct.std::ios_base::_Words"*, %"class.std::locale" }
%"struct.std::ios_base::_Callback_list" = type { %"struct.std::ios_base::_Callback_list"*, void (i32, %"class.std::ios_base"*, i32)*, i32, i32 }
%"struct.std::ios_base::_Words" = type { i8*, i64 }
%"class.std::locale" = type { %"class.std::locale::_Impl"* }
%"class.std::locale::_Impl" = type { i32, %"class.std::locale::facet"**, i64, %"class.std::locale::facet"**, i8** }
%"class.std::locale::facet" = type <{ i32 (...)**, i32, [4 x i8] }>
%"class.std::basic_ostream" = type { i32 (...)**, %"class.std::basic_ios" }
%"class.std::basic_streambuf" = type { i32 (...)**, i8*, i8*, i8*, i8*, i8*, i8*, %"class.std::locale" }
%"class.std::ctype" = type <{ %"class.std::locale::facet.base", [4 x i8], %struct.__locale_struct*, i8, [7 x i8], i32*, i32*, i16*, i8, [256 x i8], [256 x i8], i8, [6 x i8] }>
%"class.std::locale::facet.base" = type <{ i32 (...)**, i32 }>
%struct.__locale_struct = type { [13 x %struct.__locale_data*], i16*, i32*, i32*, [13 x i8*] }
%struct.__locale_data = type opaque
%"class.std::num_put" = type { %"class.std::locale::facet.base", [4 x i8] }
%"class.std::num_get" = type { %"class.std::locale::facet.base", [4 x i8] }

@_ZStL8__ioinit = internal global %"class.std::ios_base::Init" zeroinitializer, align 1
@__dso_handle = external hidden global i8
@_ZSt3cin = external dso_local global %"class.std::basic_istream", align 8
@__const.main.b = private unnamed_addr constant [12 x i32] [i32 0, i32 31, i32 28, i32 31, i32 30, i32 31, i32 30, i32 31, i32 31, i32 30, i32 31, i32 30], align 16
@_ZSt4cout = external dso_local global %"class.std::basic_ostream", align 8
@llvm.global_ctors = appending global [1 x { i32, void ()*, i8* }] [{ i32, void ()*, i8* } { i32 65535, void ()* @_GLOBAL__sub_I_1326.cpp, i8* null }]

; Function Attrs: noinline uwtable
define internal void @__cxx_global_var_init() #0 section ".text.startup" {
  call void @_ZNSt8ios_base4InitC1Ev(%"class.std::ios_base::Init"* @_ZStL8__ioinit)
  %1 = call i32 @__cxa_atexit(void (i8*)* bitcast (void (%"class.std::ios_base::Init"*)* @_ZNSt8ios_base4InitD1Ev to void (i8*)*), i8* getelementptr inbounds (%"class.std::ios_base::Init", %"class.std::ios_base::Init"* @_ZStL8__ioinit, i32 0, i32 0), i8* @__dso_handle) #3
  ret void
}

declare dso_local void @_ZNSt8ios_base4InitC1Ev(%"class.std::ios_base::Init"*) unnamed_addr #1

; Function Attrs: nounwind
declare dso_local void @_ZNSt8ios_base4InitD1Ev(%"class.std::ios_base::Init"*) unnamed_addr #2

; Function Attrs: nounwind
declare dso_local i32 @__cxa_atexit(void (i8*)*, i8*, i8*) #3

; Function Attrs: noinline norecurse uwtable
define dso_local i32 @main() #4 {
  %1 = alloca i32, align 4
  %2 = alloca i32, align 4
  %3 = alloca i32, align 4
  %4 = alloca [365 x i32], align 16
  %5 = alloca [12 x i32], align 16
  %6 = alloca i32, align 4
  %7 = alloca i32, align 4
  %8 = alloca i32, align 4
  store i32 0, i32* %1, align 4
  store i32 0, i32* %3, align 4
  %9 = call dereferenceable(280) %"class.std::basic_istream"* @_ZNSirsERi(%"class.std::basic_istream"* @_ZSt3cin, i32* dereferenceable(4) %2)
  %10 = getelementptr inbounds [365 x i32], [365 x i32]* %4, i64 0, i64 0
  %11 = bitcast i32* %10 to i8*
  call void @llvm.memset.p0i8.i64(i8* align 16 %11, i8 0, i64 1460, i1 false)
  %12 = bitcast [12 x i32]* %5 to i8*
  call void @llvm.memcpy.p0i8.p0i8.i64(i8* align 16 %12, i8* align 16 bitcast ([12 x i32]* @__const.main.b to i8*), i64 48, i1 false)
  store i32 0, i32* %6, align 4
  br label %13

13:                                               ; preds = %25, %0
  %14 = load i32, i32* %6, align 4
  %15 = icmp slt i32 %14, 51
  br i1 %15, label %16, label %28

16:                                               ; preds = %13
  %17 = load i32, i32* %6, align 4
  %18 = mul nsw i32 7, %17
  %19 = add nsw i32 %18, 13
  %20 = load i32, i32* %2, align 4
  %21 = sub nsw i32 %19, %20
  store i32 %21, i32* %7, align 4
  %22 = load i32, i32* %7, align 4
  %23 = sext i32 %22 to i64
  %24 = getelementptr inbounds [365 x i32], [365 x i32]* %4, i64 0, i64 %23
  store i32 1, i32* %24, align 4
  br label %25

25:                                               ; preds = %16
  %26 = load i32, i32* %6, align 4
  %27 = add nsw i32 %26, 1
  store i32 %27, i32* %6, align 4
  br label %13

28:                                               ; preds = %13
  store i32 0, i32* %8, align 4
  br label %29

29:                                               ; preds = %57, %28
  %30 = load i32, i32* %8, align 4
  %31 = icmp slt i32 %30, 12
  br i1 %31, label %32, label %60

32:                                               ; preds = %29
  %33 = load i32, i32* %8, align 4
  %34 = sext i32 %33 to i64
  %35 = getelementptr inbounds [12 x i32], [12 x i32]* %5, i64 0, i64 %34
  %36 = load i32, i32* %35, align 4
  %37 = load i32, i32* %3, align 4
  %38 = add nsw i32 %37, %36
  store i32 %38, i32* %3, align 4
  %39 = load i32, i32* %3, align 4
  %40 = add nsw i32 %39, 13
  %41 = sext i32 %40 to i64
  %42 = getelementptr inbounds [365 x i32], [365 x i32]* %4, i64 0, i64 %41
  %43 = load i32, i32* %42, align 4
  %44 = add nsw i32 %43, 1
  store i32 %44, i32* %42, align 4
  %45 = load i32, i32* %3, align 4
  %46 = add nsw i32 %45, 13
  %47 = sext i32 %46 to i64
  %48 = getelementptr inbounds [365 x i32], [365 x i32]* %4, i64 0, i64 %47
  %49 = load i32, i32* %48, align 4
  %50 = icmp eq i32 %49, 2
  br i1 %50, label %51, label %56

51:                                               ; preds = %32
  %52 = load i32, i32* %8, align 4
  %53 = add nsw i32 %52, 1
  %54 = call dereferenceable(272) %"class.std::basic_ostream"* @_ZNSolsEi(%"class.std::basic_ostream"* @_ZSt4cout, i32 %53)
  %55 = call dereferenceable(272) %"class.std::basic_ostream"* @_ZNSolsEPFRSoS_E(%"class.std::basic_ostream"* %54, %"class.std::basic_ostream"* (%"class.std::basic_ostream"*)* @_ZSt4endlIcSt11char_traitsIcEERSt13basic_ostreamIT_T0_ES6_)
  br label %56

56:                                               ; preds = %51, %32
  br label %57

57:                                               ; preds = %56
  %58 = load i32, i32* %8, align 4
  %59 = add nsw i32 %58, 1
  store i32 %59, i32* %8, align 4
  br label %29

60:                                               ; preds = %29
  ret i32 0
}

declare dso_local dereferenceable(280) %"class.std::basic_istream"* @_ZNSirsERi(%"class.std::basic_istream"*, i32* dereferenceable(4)) #1

; Function Attrs: argmemonly nounwind willreturn
declare void @llvm.memset.p0i8.i64(i8* nocapture writeonly, i8, i64, i1 immarg) #5

; Function Attrs: argmemonly nounwind willreturn
declare void @llvm.memcpy.p0i8.p0i8.i64(i8* noalias nocapture writeonly, i8* noalias nocapture readonly, i64, i1 immarg) #5

declare dso_local dereferenceable(272) %"class.std::basic_ostream"* @_ZNSolsEi(%"class.std::basic_ostream"*, i32) #1

declare dso_local dereferenceable(272) %"class.std::basic_ostream"* @_ZNSolsEPFRSoS_E(%"class.std::basic_ostream"*, %"class.std::basic_ostream"* (%"class.std::basic_ostream"*)*) #1

declare dso_local dereferenceable(272) %"class.std::basic_ostream"* @_ZSt4endlIcSt11char_traitsIcEERSt13basic_ostreamIT_T0_ES6_(%"class.std::basic_ostream"* dereferenceable(272)) #1

; Function Attrs: noinline uwtable
define internal void @_GLOBAL__sub_I_1326.cpp() #0 section ".text.startup" {
  call void @__cxx_global_var_init()
  ret void
}


!llvm.module.flags = !{!0}
!llvm.ident = !{!1}

!0 = !{i32 1, !"wchar_size", i32 4}
!1 = !{!"clang version 10.0.0-4ubuntu1 "}
